target datalayout = "e-m:e-p270:32:32-p271:32:32-p272:64:64-i64:64-i128:128-f80:128-n8:16:32:64-S128"
target triple = "x86_64-pc-linux-gnu"

%struct.pmix_object_t = type { %union.pthread_mutex_t, ptr, i32, %struct.pmix_tma }
%union.pthread_mutex_t = type { %struct.__pthread_mutex_s }
%struct.__pthread_mutex_s = type { i32, i32, i32, i32, i32, i16, i16, %struct.__pthread_internal_list }
%struct.__pthread_internal_list = type { ptr, ptr }
%struct.pmix_tma = type { ptr, ptr, ptr, ptr, ptr, ptr, ptr, ptr }
%struct.pmix_bfrop_type_info_t = type { %struct.pmix_object_t, i16, ptr, ptr, ptr, ptr, ptr }
%struct.pmix_pointer_array_t = type { %struct.pmix_object_t, i32, i32, i32, i32, i32, ptr, ptr }

@.str.8 = private unnamed_addr constant [3 x i8] c"%f\00", align 1

; Function Attrs: inlinehint nounwind uwtable
define internal ptr @pmix_pointer_array_get_item(ptr noundef %0, i32 noundef %1) #3 {
  %3 = alloca ptr, align 8
  %4 = alloca ptr, align 8
  %5 = alloca i32, align 4
  %6 = alloca ptr, align 8
  %7 = alloca i32, align 4
  store ptr %0, ptr %4, align 8, !tbaa !3
  store i32 %1, ptr %5, align 4, !tbaa !9
  call void @llvm.lifetime.start.p0(i64 8, ptr %6) #9
  %8 = load i32, ptr %5, align 4, !tbaa !9
  %9 = icmp sgt i32 0, %8
  br i1 %9, label %16, label %10

10:                                               ; preds = %2
  %11 = load ptr, ptr %4, align 8, !tbaa !3
  %12 = getelementptr inbounds nuw %struct.pmix_pointer_array_t, ptr %11, i32 0, i32 3
  %13 = load i32, ptr %12, align 8, !tbaa !22
  %14 = load i32, ptr %5, align 4, !tbaa !9
  %15 = icmp sle i32 %13, %14
  br label %16

16:                                               ; preds = %10, %2
  %17 = phi i1 [ true, %2 ], [ %15, %10 ]
  %18 = xor i1 %17, true
  %19 = xor i1 %18, true
  %20 = zext i1 %19 to i32
  %21 = sext i32 %20 to i64
  %22 = call i64 @llvm.expect.i64(i64 %21, i64 0)
  %23 = icmp ne i64 %22, 0
  br i1 %23, label %24, label %25

24:                                               ; preds = %16
  store ptr null, ptr %3, align 8
  store i32 1, ptr %7, align 4
  br label %34

25:                                               ; preds = %16
  %26 = load ptr, ptr %4, align 8, !tbaa !3
  %27 = getelementptr inbounds nuw %struct.pmix_pointer_array_t, ptr %26, i32 0, i32 7
  %28 = load ptr, ptr %27, align 8, !tbaa !25
  %29 = load i32, ptr %5, align 4, !tbaa !9
  %30 = sext i32 %29 to i64
  %31 = getelementptr inbounds ptr, ptr %28, i64 %30
  %32 = load ptr, ptr %31, align 8, !tbaa !8
  store ptr %32, ptr %6, align 8, !tbaa !8
  %33 = load ptr, ptr %6, align 8, !tbaa !8
  store ptr %33, ptr %3, align 8
  store i32 1, ptr %7, align 4
  br label %34

34:                                               ; preds = %25, %24
  call void @llvm.lifetime.end.p0(i64 8, ptr %6) #9
  %35 = load ptr, ptr %3, align 8
  ret ptr %35
}

; Function Attrs: nounwind uwtable
define i32 @pmix_bfrops_base_pack_double(ptr noundef %0, ptr noundef %1, ptr noundef %2, i32 noundef %3, i16 noundef zeroext %4) #0 {
  %6 = alloca i32, align 4
  %7 = alloca ptr, align 8
  %8 = alloca ptr, align 8
  %9 = alloca ptr, align 8
  %10 = alloca i32, align 4
  %11 = alloca i16, align 2
  %12 = alloca i32, align 4
  %13 = alloca i32, align 4
  %14 = alloca ptr, align 8
  %15 = alloca ptr, align 8
  %16 = alloca i32, align 4
  %17 = alloca ptr, align 8
  store ptr %0, ptr %7, align 8, !tbaa !3
  store ptr %1, ptr %8, align 8, !tbaa !8
  store ptr %2, ptr %9, align 8, !tbaa !8
  store i32 %3, ptr %10, align 4, !tbaa !9
  store i16 %4, ptr %11, align 2, !tbaa !11
  call void @llvm.lifetime.start.p0(i64 4, ptr %12) #9
  store i32 0, ptr %12, align 4, !tbaa !9
  call void @llvm.lifetime.start.p0(i64 4, ptr %13) #9
  call void @llvm.lifetime.start.p0(i64 8, ptr %14) #9
  %18 = load ptr, ptr %9, align 8, !tbaa !8
  store ptr %18, ptr %14, align 8, !tbaa !62
  call void @llvm.lifetime.start.p0(i64 8, ptr %15) #9
  store i32 0, ptr %13, align 4, !tbaa !9
  br label %19

19:                                               ; preds = %57, %5
  %20 = load i32, ptr %13, align 4, !tbaa !9
  %21 = load i32, ptr %10, align 4, !tbaa !9
  %22 = icmp slt i32 %20, %21
  br i1 %22, label %23, label %60

23:                                               ; preds = %19
  %24 = load ptr, ptr %14, align 8, !tbaa !62
  %25 = load i32, ptr %13, align 4, !tbaa !9
  %26 = sext i32 %25 to i64
  %27 = getelementptr inbounds double, ptr %24, i64 %26
  %28 = load double, ptr %27, align 8, !tbaa !64
  %29 = call i32 (ptr, ptr, ...) @asprintf(ptr noundef %15, ptr noundef @.str.8, double noundef %28) #9
  store i32 %29, ptr %12, align 4, !tbaa !9
  %30 = load i32, ptr %12, align 4, !tbaa !9
  %31 = icmp sgt i32 0, %30
  br i1 %31, label %32, label %33

32:                                               ; preds = %23
  store i32 -29, ptr %6, align 4
  store i32 1, ptr %16, align 4
  br label %61

33:                                               ; preds = %23
  br label %34

34:                                               ; preds = %33
  call void @llvm.lifetime.start.p0(i64 8, ptr %17) #9
  %35 = load ptr, ptr %7, align 8, !tbaa !3
  %36 = call ptr @pmix_pointer_array_get_item(ptr noundef %35, i32 noundef 3)
  store ptr %36, ptr %17, align 8, !tbaa !8
  %37 = load ptr, ptr %17, align 8, !tbaa !8
  %38 = icmp eq ptr null, %37
  br i1 %38, label %39, label %40

39:                                               ; preds = %34
  store i32 -16, ptr %12, align 4, !tbaa !9
  br label %47

40:                                               ; preds = %34
  %41 = load ptr, ptr %17, align 8, !tbaa !8
  %42 = getelementptr inbounds nuw %struct.pmix_bfrop_type_info_t, ptr %41, i32 0, i32 3
  %43 = load ptr, ptr %42, align 8, !tbaa !20
  %44 = load ptr, ptr %7, align 8, !tbaa !3
  %45 = load ptr, ptr %8, align 8, !tbaa !8
  %46 = call i32 %43(ptr noundef %44, ptr noundef %45, ptr noundef %15, i32 noundef 1, i16 noundef zeroext 3)
  store i32 %46, ptr %12, align 4, !tbaa !9
  br label %47

47:                                               ; preds = %40, %39
  call void @llvm.lifetime.end.p0(i64 8, ptr %17) #9
  br label %48

48:                                               ; preds = %47
  br label %49

49:                                               ; preds = %48
  %50 = load i32, ptr %12, align 4, !tbaa !9
  %51 = icmp ne i32 0, %50
  br i1 %51, label %52, label %55

52:                                               ; preds = %49
  %53 = load ptr, ptr %15, align 8, !tbaa !37
  call void @free(ptr noundef %53) #9
  %54 = load i32, ptr %12, align 4, !tbaa !9
  store i32 %54, ptr %6, align 4
  store i32 1, ptr %16, align 4
  br label %61

55:                                               ; preds = %49
  %56 = load ptr, ptr %15, align 8, !tbaa !37
  call void @free(ptr noundef %56) #9
  br label %57

57:                                               ; preds = %55
  %58 = load i32, ptr %13, align 4, !tbaa !9
  %59 = add nsw i32 %58, 1
  store i32 %59, ptr %13, align 4, !tbaa !9
  br label %19, !llvm.loop !66

60:                                               ; preds = %19
  store i32 0, ptr %6, align 4
  store i32 1, ptr %16, align 4
  br label %61

61:                                               ; preds = %60, %52, %32
  call void @llvm.lifetime.end.p0(i64 8, ptr %15) #9
  call void @llvm.lifetime.end.p0(i64 8, ptr %14) #9
  call void @llvm.lifetime.end.p0(i64 4, ptr %13) #9
  call void @llvm.lifetime.end.p0(i64 4, ptr %12) #9
  %62 = load i32, ptr %6, align 4
  ret i32 %62
}