; Function Attrs: nounwind uwtable
define i32 @pmix_bfrops_base_pack_double(ptr noundef %0, ptr noundef %1, ptr noundef readonly captures(none) %2, i32 noundef %3, i16 noundef zeroext %4) local_unnamed_addr #0 {
  %6 = alloca ptr, align 8
  call void @llvm.lifetime.start.p0(i64 8, ptr nonnull %6) #8
  %7 = icmp sgt i32 %3, 0
  br i1 %7, label %.lr.ph, label %.loopexit

.lr.ph:                                           ; preds = %5
  %8 = getelementptr inbounds nuw i8, ptr %0, i64 128
  %9 = getelementptr inbounds nuw i8, ptr %0, i64 152
  %wide.trip.count = zext nneg i32 %3 to i64
  br label %10

10:                                               ; preds = %.lr.ph, %26
  %indvars.iv = phi i64 [ 0, %.lr.ph ], [ %indvars.iv.next, %26 ]
  %11 = getelementptr inbounds nuw double, ptr %2, i64 %indvars.iv
  %12 = load double, ptr %11, align 8, !tbaa !50
  %13 = call i32 (ptr, ptr, ...) @asprintf(ptr noundef nonnull %6, ptr noundef nonnull @.str.8, double noundef %12) #8
  %14 = icmp slt i32 %13, 0
  br i1 %14, label %.loopexit, label %15

15:                                               ; preds = %10
  %16 = load i32, ptr %8, align 8, !tbaa !15
  %.not.i = icmp sgt i32 %16, 3
  br i1 %.not.i, label %pmix_pointer_array_get_item.exit, label %.thread, !prof !18

pmix_pointer_array_get_item.exit:                 ; preds = %15
  %17 = load ptr, ptr %9, align 8, !tbaa !19
  %18 = getelementptr inbounds nuw i8, ptr %17, i64 24
  %19 = load ptr, ptr %18, align 8, !tbaa !20
  %20 = icmp eq ptr %19, null
  br i1 %20, label %.thread, label %21

21:                                               ; preds = %pmix_pointer_array_get_item.exit
  %22 = getelementptr inbounds nuw i8, ptr %19, i64 136
  %23 = load ptr, ptr %22, align 8, !tbaa !21
  %24 = call i32 %23(ptr noundef nonnull %0, ptr noundef %1, ptr noundef nonnull %6, i32 noundef 1, i16 noundef zeroext 3) #8
  %.not = icmp eq i32 %24, 0
  br i1 %.not, label %26, label %.thread

.thread:                                          ; preds = %15, %pmix_pointer_array_get_item.exit, %21
  %.01420 = phi i32 [ %24, %21 ], [ -16, %pmix_pointer_array_get_item.exit ], [ -16, %15 ]
  %25 = load ptr, ptr %6, align 8, !tbaa !45
  call void @free(ptr noundef %25) #8
  br label %.loopexit

26:                                               ; preds = %21
  %27 = load ptr, ptr %6, align 8, !tbaa !45
  call void @free(ptr noundef %27) #8
  %indvars.iv.next = add nuw nsw i64 %indvars.iv, 1
  %exitcond.not = icmp eq i64 %indvars.iv.next, %wide.trip.count
  br i1 %exitcond.not, label %.loopexit, label %10, !llvm.loop !52

.loopexit:                                        ; preds = %10, %26, %5, %.thread
  %.0 = phi i32 [ %.01420, %.thread ], [ 0, %5 ], [ -29, %10 ], [ 0, %26 ]
  call void @llvm.lifetime.end.p0(i64 8, ptr nonnull %6) #8
  ret i32 %.0
}